; Function Attrs: mustprogress nounwind uwtable
define hidden { i64, i64 } @_ZNK5clang6driver10toolchains15HIPAMDToolChain18computeMSVCVersionEPKNS0_6DriverERKN4llvm3opt7ArgListE(ptr nocapture noundef nonnull readonly align 8 dereferenceable(4544) %0, ptr noundef %1, ptr noundef nonnull align 8 dereferenceable(176) %2) unnamed_addr #0 align 2 {
  %4 = getelementptr inbounds nuw i8, ptr %0, i64 4536
  %5 = load ptr, ptr %4, align 8
  %6 = load ptr, ptr %5, align 8
  %7 = getelementptr inbounds i8, ptr %6, i64 680
  %8 = load ptr, ptr %7, align 8
  %9 = tail call { i64, i64 } %8(ptr noundef nonnull align 8 dereferenceable(2168) %5, ptr noundef %1, ptr noundef nonnull align 8 dereferenceable(176) %2) #12
  ret { i64, i64 } %9
}